; Function Attrs: mustprogress nofree norecurse nosync nounwind willreturn memory(readwrite, inaccessiblemem: none) uwtable
define void @_ZN9grpc_core11SliceBuffer7PrependENS_5SliceE(ptr noundef nonnull align 8 captures(none) dereferenceable(232) %0, ptr noundef captures(none) %1) local_unnamed_addr #7 align 2 {
  %.sroa.6 = alloca [16 x i8], align 8
  %.sroa.05.0.copyload = load ptr, ptr %1, align 8, !tbaa !4
  %.sroa.2.0..sroa_idx = getelementptr inbounds nuw i8, ptr %1, i64 8
  %.sroa.2.0.copyload = load i64, ptr %.sroa.2.0..sroa_idx, align 8
  %.sroa.3.0..sroa_idx = getelementptr inbounds nuw i8, ptr %1, i64 16
  call void @llvm.lifetime.start.p0(i64 16, ptr nonnull %.sroa.6)
  call void @llvm.memcpy.p0.p0.i64(ptr noundef nonnull align 8 dereferenceable(16) %.sroa.6, ptr noundef nonnull align 8 dereferenceable(16) %.sroa.3.0..sroa_idx, i64 16, i1 false)
  tail call void @llvm.memset.p0.i64(ptr noundef nonnull align 8 dereferenceable(32) %1, i8 0, i64 32, i1 false), !noalias !51
  %3 = getelementptr inbounds nuw i8, ptr %0, i64 8
  %4 = load ptr, ptr %3, align 8, !tbaa !17
  %5 = getelementptr inbounds i8, ptr %4, i64 -32
  store ptr %5, ptr %3, align 8, !tbaa !17
  store ptr %.sroa.05.0.copyload, ptr %5, align 8, !tbaa !4
  %.sroa.5.0..sroa_idx = getelementptr inbounds i8, ptr %4, i64 -24
  store i64 %.sroa.2.0.copyload, ptr %.sroa.5.0..sroa_idx, align 8
  %.sroa.6.0..sroa_idx = getelementptr inbounds i8, ptr %4, i64 -16
  call void @llvm.memcpy.p0.p0.i64(ptr noundef nonnull align 8 dereferenceable(16) %.sroa.6.0..sroa_idx, ptr noundef nonnull align 8 dereferenceable(16) %.sroa.6, i64 16, i1 false), !tbaa.struct !28
  %6 = getelementptr inbounds nuw i8, ptr %0, i64 16
  %7 = load i64, ptr %6, align 8, !tbaa !13
  %8 = add i64 %7, 1
  store i64 %8, ptr %6, align 8, !tbaa !13
  %.not.i = icmp eq ptr %.sroa.05.0.copyload, null
  %9 = and i64 %.sroa.2.0.copyload, 255
  %10 = select i1 %.not.i, i64 %9, i64 %.sroa.2.0.copyload
  %11 = getelementptr inbounds nuw i8, ptr %0, i64 32
  %12 = load i64, ptr %11, align 8, !tbaa !20
  %13 = add i64 %12, %10
  store i64 %13, ptr %11, align 8, !tbaa !20
  call void @llvm.lifetime.end.p0(i64 16, ptr nonnull %.sroa.6)
  ret void
}